ccopy_reg
_reconstructor
p0
(cdata_buffer
DataBuffer
p1
c__builtin__
object
p2
Ntp3
Rp4
(dp5
S'action_t'
p6
(lp7
I2
aI2
aI2
aI2
aI2
aI2
aI2
aI2
aI2
aI2
asS'state_next_t'
p8
(lp9
I5
aI5
aI5
aI5
aI5
aI5
aI5
aI5
aI5
aI5
asS'state_t'
p10
(lp11
I1
aI1
aI1
aI1
aI1
aI1
aI1
aI1
aI1
aI1
asS'size'
p12
I10
sb.